target datalayout = "e-m:e-p270:32:32-p271:32:32-p272:64:64-i64:64-i128:128-f80:128-n8:16:32:64-S128"
target triple = "x86_64-pc-linux-gnu"

; Function Attrs: nounwind uwtable
define hidden void @je_bin_shard_sizes_boot(ptr noundef %0) #0 {
  %2 = alloca ptr, align 8
  %3 = alloca i32, align 4
  store ptr %0, ptr %2, align 8, !tbaa !4
  call void @llvm.lifetime.start.p0(i64 4, ptr %3) #9
  store i32 0, ptr %3, align 4, !tbaa !11
  br label %4

4:                                                ; preds = %14, %1
  %5 = load i32, ptr %3, align 4, !tbaa !11
  %6 = zext i32 %5 to i64
  %7 = icmp ult i64 %6, 36
  br i1 %7, label %9, label %8

8:                                                ; preds = %4
  call void @llvm.lifetime.end.p0(i64 4, ptr %3) #9
  br label %17

9:                                                ; preds = %4
  %10 = load ptr, ptr %2, align 8, !tbaa !4
  %11 = load i32, ptr %3, align 4, !tbaa !11
  %12 = zext i32 %11 to i64
  %13 = getelementptr inbounds nuw i32, ptr %10, i64 %12
  store i32 1, ptr %13, align 4, !tbaa !11
  br label %14

14:                                               ; preds = %9
  %15 = load i32, ptr %3, align 4, !tbaa !11
  %16 = add i32 %15, 1
  store i32 %16, ptr %3, align 4, !tbaa !11
  br label %4, !llvm.loop !15

17:                                               ; preds = %8
  ret void
}