; Function Attrs: nofree norecurse nosync nounwind memory(argmem: write) uwtable
define hidden void @je_bin_shard_sizes_boot(ptr noundef writeonly captures(none) %0) local_unnamed_addr #0 {
  br label %3

2:                                                ; preds = %3
  ret void

3:                                                ; preds = %1, %3
  %indvars.iv = phi i64 [ 0, %1 ], [ %indvars.iv.next, %3 ]
  %4 = getelementptr inbounds nuw i32, ptr %0, i64 %indvars.iv
  store i32 1, ptr %4, align 4, !tbaa !4
  %indvars.iv.next = add nuw nsw i64 %indvars.iv, 1
  %exitcond.not = icmp eq i64 %indvars.iv.next, 36
  br i1 %exitcond.not, label %2, label %3, !llvm.loop !10
}